; Function Attrs: null_pointer_is_valid sspstrong uwtable
define internal void @free_spdu_signal_list_cb(ptr noundef captures(none) %0) #0 {
  %2 = getelementptr inbounds nuw i8, ptr %0, i64 16
  %3 = load ptr, ptr %2, align 8
  %.not = icmp eq ptr %3, null
  br i1 %.not, label %5, label %4

4:                                                ; preds = %1
  tail call void @g_free(ptr noundef nonnull %3)
  store ptr null, ptr %2, align 8
  br label %5

5:                                                ; preds = %4, %1
  %6 = getelementptr inbounds nuw i8, ptr %0, i64 24
  %7 = load ptr, ptr %6, align 8
  %.not20 = icmp eq ptr %7, null
  br i1 %.not20, label %9, label %8

8:                                                ; preds = %5
  tail call void @g_free(ptr noundef nonnull %7)
  store ptr null, ptr %6, align 8
  br label %9

9:                                                ; preds = %8, %5
  %10 = getelementptr inbounds nuw i8, ptr %0, i64 32
  %11 = load ptr, ptr %10, align 8
  %.not21 = icmp eq ptr %11, null
  br i1 %.not21, label %13, label %12

12:                                               ; preds = %9
  tail call void @g_free(ptr noundef nonnull %11)
  store ptr null, ptr %10, align 8
  br label %13

13:                                               ; preds = %12, %9
  %14 = getelementptr inbounds nuw i8, ptr %0, i64 56
  %15 = load ptr, ptr %14, align 8
  %.not22 = icmp eq ptr %15, null
  br i1 %.not22, label %17, label %16

16:                                               ; preds = %13
  tail call void @g_free(ptr noundef nonnull %15)
  store ptr null, ptr %14, align 8
  br label %17

17:                                               ; preds = %16, %13
  %18 = getelementptr inbounds nuw i8, ptr %0, i64 64
  %19 = load ptr, ptr %18, align 8
  %.not23 = icmp eq ptr %19, null
  br i1 %.not23, label %21, label %20

20:                                               ; preds = %17
  tail call void @g_free(ptr noundef nonnull %19)
  store ptr null, ptr %18, align 8
  br label %21

21:                                               ; preds = %20, %17
  ret void
}